target datalayout = "e-m:e-p270:32:32-p271:32:32-p272:64:64-i64:64-i128:128-f80:128-n8:16:32:64-S128"
target triple = "x86_64-pc-linux-gnu"

%struct.hwloc_topology = type { i32, i32, i32, ptr, ptr, i64, [20 x i32], [20 x i32], i64, i64, i32, ptr, i64, ptr, i64, [6 x %struct.hwloc_special_level_s], ptr, ptr, %struct.hwloc_binding_hooks, %struct.hwloc_topology_support, %struct.hwloc_infos_s, ptr, ptr, i32, ptr, ptr, i32, i32, ptr, i32, i32, ptr, i32, i32, i32, [5 x float], i32, ptr, ptr, i32, i32, ptr, i32, %struct.hwloc_numanode_attr_s, i32, i32, ptr, i64, i32, ptr, ptr, ptr }
%struct.hwloc_special_level_s = type { i32, ptr, ptr, ptr }
%struct.hwloc_binding_hooks = type { ptr, ptr, ptr, ptr, ptr, ptr, ptr, ptr, ptr, ptr, ptr, ptr, ptr, ptr, ptr, ptr, ptr, ptr, ptr, ptr, ptr, ptr, ptr, ptr }
%struct.hwloc_topology_support = type { ptr, ptr, ptr, ptr }
%struct.hwloc_infos_s = type { ptr, i32, i32 }
%struct.hwloc_numanode_attr_s = type { i64, i32, ptr }
%struct.hwloc_obj = type { i32, ptr, i32, ptr, i64, ptr, i32, i32, ptr, ptr, ptr, i32, ptr, ptr, i32, ptr, ptr, ptr, i32, i32, ptr, i32, ptr, i32, ptr, ptr, ptr, ptr, ptr, %struct.hwloc_infos_s, ptr, i64 }

; Function Attrs: nounwind willreturn memory(read) uwtable
define ptr @hwloc_get_obj_by_depth(ptr noundef %0, i32 noundef %1, i32 noundef %2) #1 {
  %4 = alloca ptr, align 8
  %5 = alloca ptr, align 8
  %6 = alloca i32, align 4
  %7 = alloca i32, align 4
  %8 = alloca i32, align 4
  %9 = alloca i32, align 4
  store ptr %0, ptr %5, align 8, !tbaa !3
  store i32 %1, ptr %6, align 4, !tbaa !8
  store i32 %2, ptr %7, align 4, !tbaa !8
  %10 = load i32, ptr %6, align 4, !tbaa !8
  %11 = load ptr, ptr %5, align 8, !tbaa !3
  %12 = getelementptr inbounds nuw %struct.hwloc_topology, ptr %11, i32 0, i32 1
  %13 = load i32, ptr %12, align 4, !tbaa !10
  %14 = icmp uge i32 %10, %13
  br i1 %14, label %15, label %47

15:                                               ; preds = %3
  call void @llvm.lifetime.start.p0(i64 4, ptr %8) #10
  %16 = load i32, ptr %6, align 4, !tbaa !8
  %17 = sub nsw i32 -3, %16
  store i32 %17, ptr %8, align 4, !tbaa !8
  %18 = load i32, ptr %8, align 4, !tbaa !8
  %19 = icmp ult i32 %18, 6
  br i1 %19, label %20, label %45

20:                                               ; preds = %15
  %21 = load i32, ptr %7, align 4, !tbaa !8
  %22 = load ptr, ptr %5, align 8, !tbaa !3
  %23 = getelementptr inbounds nuw %struct.hwloc_topology, ptr %22, i32 0, i32 15
  %24 = load i32, ptr %8, align 4, !tbaa !8
  %25 = zext i32 %24 to i64
  %26 = getelementptr inbounds nuw [6 x %struct.hwloc_special_level_s], ptr %23, i64 0, i64 %25
  %27 = getelementptr inbounds nuw %struct.hwloc_special_level_s, ptr %26, i32 0, i32 0
  %28 = load i32, ptr %27, align 8, !tbaa !49
  %29 = icmp ult i32 %21, %28
  br i1 %29, label %30, label %42

30:                                               ; preds = %20
  %31 = load ptr, ptr %5, align 8, !tbaa !3
  %32 = getelementptr inbounds nuw %struct.hwloc_topology, ptr %31, i32 0, i32 15
  %33 = load i32, ptr %8, align 4, !tbaa !8
  %34 = zext i32 %33 to i64
  %35 = getelementptr inbounds nuw [6 x %struct.hwloc_special_level_s], ptr %32, i64 0, i64 %34
  %36 = getelementptr inbounds nuw %struct.hwloc_special_level_s, ptr %35, i32 0, i32 1
  %37 = load ptr, ptr %36, align 8, !tbaa !51
  %38 = load i32, ptr %7, align 4, !tbaa !8
  %39 = zext i32 %38 to i64
  %40 = getelementptr inbounds nuw ptr, ptr %37, i64 %39
  %41 = load ptr, ptr %40, align 8, !tbaa !37
  br label %43

42:                                               ; preds = %20
  br label %43

43:                                               ; preds = %42, %30
  %44 = phi ptr [ %41, %30 ], [ null, %42 ]
  store ptr %44, ptr %4, align 8
  store i32 1, ptr %9, align 4
  br label %46

45:                                               ; preds = %15
  store ptr null, ptr %4, align 8
  store i32 1, ptr %9, align 4
  br label %46

46:                                               ; preds = %45, %43
  call void @llvm.lifetime.end.p0(i64 4, ptr %8) #10
  br label %70

47:                                               ; preds = %3
  %48 = load i32, ptr %7, align 4, !tbaa !8
  %49 = load ptr, ptr %5, align 8, !tbaa !3
  %50 = getelementptr inbounds nuw %struct.hwloc_topology, ptr %49, i32 0, i32 3
  %51 = load ptr, ptr %50, align 8, !tbaa !52
  %52 = load i32, ptr %6, align 4, !tbaa !8
  %53 = sext i32 %52 to i64
  %54 = getelementptr inbounds i32, ptr %51, i64 %53
  %55 = load i32, ptr %54, align 4, !tbaa !8
  %56 = icmp uge i32 %48, %55
  br i1 %56, label %57, label %58

57:                                               ; preds = %47
  store ptr null, ptr %4, align 8
  br label %70

58:                                               ; preds = %47
  %59 = load ptr, ptr %5, align 8, !tbaa !3
  %60 = getelementptr inbounds nuw %struct.hwloc_topology, ptr %59, i32 0, i32 4
  %61 = load ptr, ptr %60, align 8, !tbaa !34
  %62 = load i32, ptr %6, align 4, !tbaa !8
  %63 = sext i32 %62 to i64
  %64 = getelementptr inbounds ptr, ptr %61, i64 %63
  %65 = load ptr, ptr %64, align 8, !tbaa !35
  %66 = load i32, ptr %7, align 4, !tbaa !8
  %67 = zext i32 %66 to i64
  %68 = getelementptr inbounds nuw ptr, ptr %65, i64 %67
  %69 = load ptr, ptr %68, align 8, !tbaa !37
  store ptr %69, ptr %4, align 8
  br label %70

70:                                               ; preds = %58, %57, %46
  %71 = load ptr, ptr %4, align 8
  ret ptr %71
}

; Function Attrs: nounwind uwtable
define internal ptr @hwloc_get_obj_by_depth_and_gp_index(ptr noundef %0, i32 noundef %1, i64 noundef %2) #0 {
  %4 = alloca ptr, align 8
  %5 = alloca ptr, align 8
  %6 = alloca i32, align 4
  %7 = alloca i64, align 8
  %8 = alloca ptr, align 8
  %9 = alloca i32, align 4
  store ptr %0, ptr %5, align 8, !tbaa !3
  store i32 %1, ptr %6, align 4, !tbaa !8
  store i64 %2, ptr %7, align 8, !tbaa !53
  call void @llvm.lifetime.start.p0(i64 8, ptr %8) #10
  %10 = load ptr, ptr %5, align 8, !tbaa !3
  %11 = load i32, ptr %6, align 4, !tbaa !8
  %12 = call ptr @hwloc_get_obj_by_depth(ptr noundef %10, i32 noundef %11, i32 noundef 0) #11
  store ptr %12, ptr %8, align 8, !tbaa !37
  br label %13

13:                                               ; preds = %24, %3
  %14 = load ptr, ptr %8, align 8, !tbaa !37
  %15 = icmp ne ptr %14, null
  br i1 %15, label %16, label %28

16:                                               ; preds = %13
  %17 = load ptr, ptr %8, align 8, !tbaa !37
  %18 = getelementptr inbounds nuw %struct.hwloc_obj, ptr %17, i32 0, i32 31
  %19 = load i64, ptr %18, align 8, !tbaa !55
  %20 = load i64, ptr %7, align 8, !tbaa !53
  %21 = icmp eq i64 %19, %20
  br i1 %21, label %22, label %24

22:                                               ; preds = %16
  %23 = load ptr, ptr %8, align 8, !tbaa !37
  store ptr %23, ptr %4, align 8
  store i32 1, ptr %9, align 4
  br label %29

24:                                               ; preds = %16
  %25 = load ptr, ptr %8, align 8, !tbaa !37
  %26 = getelementptr inbounds nuw %struct.hwloc_obj, ptr %25, i32 0, i32 8
  %27 = load ptr, ptr %26, align 8, !tbaa !47
  store ptr %27, ptr %8, align 8, !tbaa !37
  br label %13, !llvm.loop !56

28:                                               ; preds = %13
  store ptr null, ptr %4, align 8
  store i32 1, ptr %9, align 4
  br label %29

29:                                               ; preds = %28, %22
  call void @llvm.lifetime.end.p0(i64 8, ptr %8) #10
  %30 = load ptr, ptr %4, align 8
  ret ptr %30
}

; Function Attrs: nounwind willreturn memory(read) uwtable
define i32 @hwloc_get_depth_type(ptr noundef %0, i32 noundef %1) #1 {
  %3 = alloca i32, align 4
  %4 = alloca ptr, align 8
  %5 = alloca i32, align 4
  store ptr %0, ptr %4, align 8, !tbaa !3
  store i32 %1, ptr %5, align 4, !tbaa !8
  %6 = load i32, ptr %5, align 4, !tbaa !8
  %7 = load ptr, ptr %4, align 8, !tbaa !3
  %8 = getelementptr inbounds nuw %struct.hwloc_topology, ptr %7, i32 0, i32 1
  %9 = load i32, ptr %8, align 4, !tbaa !10
  %10 = icmp uge i32 %6, %9
  br i1 %10, label %11, label %20

11:                                               ; preds = %2
  %12 = load i32, ptr %5, align 4, !tbaa !8
  switch i32 %12, label %19 [
    i32 -3, label %13
    i32 -4, label %14
    i32 -5, label %15
    i32 -6, label %16
    i32 -7, label %17
    i32 -8, label %18
  ]

13:                                               ; preds = %11
  store i32 14, ptr %3, align 4
  br label %32

14:                                               ; preds = %11
  store i32 16, ptr %3, align 4
  br label %32

15:                                               ; preds = %11
  store i32 17, ptr %3, align 4
  br label %32

16:                                               ; preds = %11
  store i32 18, ptr %3, align 4
  br label %32

17:                                               ; preds = %11
  store i32 19, ptr %3, align 4
  br label %32

18:                                               ; preds = %11
  store i32 15, ptr %3, align 4
  br label %32

19:                                               ; preds = %11
  store i32 -1, ptr %3, align 4
  br label %32

20:                                               ; preds = %2
  %21 = load ptr, ptr %4, align 8, !tbaa !3
  %22 = getelementptr inbounds nuw %struct.hwloc_topology, ptr %21, i32 0, i32 4
  %23 = load ptr, ptr %22, align 8, !tbaa !34
  %24 = load i32, ptr %5, align 4, !tbaa !8
  %25 = sext i32 %24 to i64
  %26 = getelementptr inbounds ptr, ptr %23, i64 %25
  %27 = load ptr, ptr %26, align 8, !tbaa !35
  %28 = getelementptr inbounds ptr, ptr %27, i64 0
  %29 = load ptr, ptr %28, align 8, !tbaa !37
  %30 = getelementptr inbounds nuw %struct.hwloc_obj, ptr %29, i32 0, i32 0
  %31 = load i32, ptr %30, align 8, !tbaa !39
  store i32 %31, ptr %3, align 4
  br label %32

32:                                               ; preds = %20, %19, %18, %17, %16, %15, %14, %13
  %33 = load i32, ptr %3, align 4
  ret i32 %33
}

; Function Attrs: nounwind uwtable
define i32 @hwloc_get_type_depth(ptr noundef %0, i32 noundef %1) #0 {
  %3 = alloca i32, align 4
  %4 = alloca ptr, align 8
  %5 = alloca i32, align 4
  store ptr %0, ptr %4, align 8, !tbaa !3
  store i32 %1, ptr %5, align 4, !tbaa !8
  %6 = load i32, ptr %5, align 4, !tbaa !8
  %7 = icmp uge i32 %6, 20
  br i1 %7, label %8, label %9

8:                                                ; preds = %2
  store i32 -1, ptr %3, align 4
  br label %16

9:                                                ; preds = %2
  %10 = load ptr, ptr %4, align 8, !tbaa !3
  %11 = getelementptr inbounds nuw %struct.hwloc_topology, ptr %10, i32 0, i32 6
  %12 = load i32, ptr %5, align 4, !tbaa !8
  %13 = zext i32 %12 to i64
  %14 = getelementptr inbounds nuw [20 x i32], ptr %11, i64 0, i64 %13
  %15 = load i32, ptr %14, align 4, !tbaa !8
  store i32 %15, ptr %3, align 4
  br label %16

16:                                               ; preds = %9, %8
  %17 = load i32, ptr %3, align 4
  ret i32 %17
}

; Function Attrs: nounwind uwtable
define hidden ptr @hwloc_get_obj_by_type_and_gp_index(ptr noundef %0, i32 noundef %1, i64 noundef %2) #0 {
  %4 = alloca ptr, align 8
  %5 = alloca ptr, align 8
  %6 = alloca i32, align 4
  %7 = alloca i64, align 8
  %8 = alloca i32, align 4
  %9 = alloca i32, align 4
  %10 = alloca ptr, align 8
  store ptr %0, ptr %5, align 8, !tbaa !3
  store i32 %1, ptr %6, align 4, !tbaa !8
  store i64 %2, ptr %7, align 8, !tbaa !53
  call void @llvm.lifetime.start.p0(i64 4, ptr %8) #10
  %11 = load ptr, ptr %5, align 8, !tbaa !3
  %12 = load i32, ptr %6, align 4, !tbaa !8
  %13 = call i32 @hwloc_get_type_depth(ptr noundef %11, i32 noundef %12)
  store i32 %13, ptr %8, align 4, !tbaa !8
  %14 = load i32, ptr %8, align 4, !tbaa !8
  %15 = icmp eq i32 %14, -1
  br i1 %15, label %16, label %17

16:                                               ; preds = %3
  store ptr null, ptr %4, align 8
  store i32 1, ptr %9, align 4
  br label %57

17:                                               ; preds = %3
  %18 = load i32, ptr %8, align 4, !tbaa !8
  %19 = icmp eq i32 %18, -2
  br i1 %19, label %20, label %52

20:                                               ; preds = %17
  store i32 1, ptr %8, align 4, !tbaa !8
  br label %21

21:                                               ; preds = %48, %20
  %22 = load i32, ptr %8, align 4, !tbaa !8
  %23 = load ptr, ptr %5, align 8, !tbaa !3
  %24 = getelementptr inbounds nuw %struct.hwloc_topology, ptr %23, i32 0, i32 1
  %25 = load i32, ptr %24, align 4, !tbaa !10
  %26 = sub i32 %25, 1
  %27 = icmp ult i32 %22, %26
  br i1 %27, label %28, label %51

28:                                               ; preds = %21
  %29 = load ptr, ptr %5, align 8, !tbaa !3
  %30 = load i32, ptr %8, align 4, !tbaa !8
  %31 = call i32 @hwloc_get_depth_type(ptr noundef %29, i32 noundef %30) #11
  %32 = load i32, ptr %6, align 4, !tbaa !8
  %33 = icmp eq i32 %31, %32
  br i1 %33, label %34, label %47

34:                                               ; preds = %28
  call void @llvm.lifetime.start.p0(i64 8, ptr %10) #10
  %35 = load ptr, ptr %5, align 8, !tbaa !3
  %36 = load i32, ptr %8, align 4, !tbaa !8
  %37 = load i64, ptr %7, align 8, !tbaa !53
  %38 = call ptr @hwloc_get_obj_by_depth_and_gp_index(ptr noundef %35, i32 noundef %36, i64 noundef %37)
  store ptr %38, ptr %10, align 8, !tbaa !37
  %39 = load ptr, ptr %10, align 8, !tbaa !37
  %40 = icmp ne ptr %39, null
  br i1 %40, label %41, label %43

41:                                               ; preds = %34
  %42 = load ptr, ptr %10, align 8, !tbaa !37
  store ptr %42, ptr %4, align 8
  store i32 1, ptr %9, align 4
  br label %44

43:                                               ; preds = %34
  store i32 0, ptr %9, align 4
  br label %44

44:                                               ; preds = %43, %41
  call void @llvm.lifetime.end.p0(i64 8, ptr %10) #10
  %45 = load i32, ptr %9, align 4
  switch i32 %45, label %57 [
    i32 0, label %46
  ]

46:                                               ; preds = %44
  br label %47

47:                                               ; preds = %46, %28
  br label %48

48:                                               ; preds = %47
  %49 = load i32, ptr %8, align 4, !tbaa !8
  %50 = add nsw i32 %49, 1
  store i32 %50, ptr %8, align 4, !tbaa !8
  br label %21, !llvm.loop !54

51:                                               ; preds = %21
  store ptr null, ptr %4, align 8
  store i32 1, ptr %9, align 4
  br label %57

52:                                               ; preds = %17
  %53 = load ptr, ptr %5, align 8, !tbaa !3
  %54 = load i32, ptr %8, align 4, !tbaa !8
  %55 = load i64, ptr %7, align 8, !tbaa !53
  %56 = call ptr @hwloc_get_obj_by_depth_and_gp_index(ptr noundef %53, i32 noundef %54, i64 noundef %55)
  store ptr %56, ptr %4, align 8
  store i32 1, ptr %9, align 4
  br label %57

57:                                               ; preds = %52, %51, %44, %16
  call void @llvm.lifetime.end.p0(i64 4, ptr %8) #10
  %58 = load ptr, ptr %4, align 8
  ret ptr %58
}