; Function Attrs: nofree norecurse nosync nounwind memory(read, inaccessiblemem: none) uwtable
define hidden ptr @hwloc_get_obj_by_type_and_gp_index(ptr noundef readonly captures(none) %0, i32 noundef %1, i64 noundef %2) local_unnamed_addr #2 {
  %4 = icmp ugt i32 %1, 19
  br i1 %4, label %hwloc_get_obj_by_depth_and_gp_index.exit36, label %hwloc_get_type_depth.exit

hwloc_get_type_depth.exit:                        ; preds = %3
  %5 = getelementptr inbounds nuw i8, ptr %0, i64 40
  %6 = zext nneg i32 %1 to i64
  %7 = getelementptr inbounds nuw [20 x i32], ptr %5, i64 0, i64 %6
  %8 = load i32, ptr %7, align 4, !tbaa !3
  switch i32 %8, label %32 [
    i32 -1, label %hwloc_get_obj_by_depth_and_gp_index.exit36
    i32 -2, label %.preheader
  ]

.preheader:                                       ; preds = %hwloc_get_type_depth.exit
  %9 = getelementptr inbounds nuw i8, ptr %0, i64 4
  %10 = load i32, ptr %9, align 4, !tbaa !7
  %11 = add i32 %10, -1
  %12 = icmp ugt i32 %11, 1
  br i1 %12, label %.lr.ph, label %hwloc_get_obj_by_depth_and_gp_index.exit36

.lr.ph:                                           ; preds = %.preheader
  %13 = getelementptr inbounds nuw i8, ptr %0, i64 24
  %14 = getelementptr inbounds nuw i8, ptr %0, i64 16
  %15 = zext i32 %10 to i64
  %wide.trip.count = zext i32 %11 to i64
  br label %16

16:                                               ; preds = %.lr.ph, %hwloc_get_obj_by_depth_and_gp_index.exit.thread
  %indvars.iv = phi i64 [ 1, %.lr.ph ], [ %indvars.iv.next, %hwloc_get_obj_by_depth_and_gp_index.exit.thread ]
  %.not.i = icmp samesign ult i64 %indvars.iv, %15
  br i1 %.not.i, label %hwloc_get_depth_type.exit.thread, label %hwloc_get_obj_by_depth_and_gp_index.exit.thread

hwloc_get_depth_type.exit.thread:                 ; preds = %16
  %17 = load ptr, ptr %13, align 8, !tbaa !32
  %18 = getelementptr inbounds nuw ptr, ptr %17, i64 %indvars.iv
  %19 = load ptr, ptr %18, align 8, !tbaa !33
  %20 = load ptr, ptr %19, align 8, !tbaa !35
  %21 = load i32, ptr %20, align 8, !tbaa !37
  %22 = icmp eq i32 %21, %1
  br i1 %22, label %.thread, label %hwloc_get_obj_by_depth_and_gp_index.exit.thread

.thread:                                          ; preds = %hwloc_get_depth_type.exit.thread
  %23 = load ptr, ptr %14, align 8, !tbaa !43
  %24 = getelementptr inbounds nuw i32, ptr %23, i64 %indvars.iv
  %25 = load i32, ptr %24, align 4, !tbaa !3
  %.not21.i.not.i = icmp eq i32 %25, 0
  br i1 %.not21.i.not.i, label %hwloc_get_obj_by_depth_and_gp_index.exit.thread, label %.lr.ph.i

.lr.ph.i:                                         ; preds = %.thread, %29
  %.010.i = phi ptr [ %31, %29 ], [ %20, %.thread ]
  %26 = getelementptr inbounds nuw i8, ptr %.010.i, i64 240
  %27 = load i64, ptr %26, align 8, !tbaa !50
  %28 = icmp eq i64 %27, %2
  br i1 %28, label %hwloc_get_obj_by_depth_and_gp_index.exit36, label %29

29:                                               ; preds = %.lr.ph.i
  %30 = getelementptr inbounds nuw i8, ptr %.010.i, i64 56
  %31 = load ptr, ptr %30, align 8, !tbaa !48
  %.not.i24 = icmp eq ptr %31, null
  br i1 %.not.i24, label %hwloc_get_obj_by_depth_and_gp_index.exit.thread, label %.lr.ph.i, !llvm.loop !51

hwloc_get_obj_by_depth_and_gp_index.exit.thread:  ; preds = %29, %16, %.thread, %hwloc_get_depth_type.exit.thread
  %indvars.iv.next = add nuw nsw i64 %indvars.iv, 1
  %exitcond.not = icmp eq i64 %indvars.iv.next, %wide.trip.count
  br i1 %exitcond.not, label %hwloc_get_obj_by_depth_and_gp_index.exit36, label %16, !llvm.loop !52

32:                                               ; preds = %hwloc_get_type_depth.exit
  %33 = getelementptr inbounds nuw i8, ptr %0, i64 4
  %34 = load i32, ptr %33, align 4, !tbaa !7
  %.not.i.i25 = icmp ult i32 %8, %34
  br i1 %.not.i.i25, label %45, label %35

35:                                               ; preds = %32
  %36 = icmp ugt i32 %8, -9
  br i1 %36, label %37, label %hwloc_get_obj_by_depth_and_gp_index.exit36

37:                                               ; preds = %35
  %38 = sub nuw nsw i32 -3, %8
  %39 = getelementptr inbounds nuw i8, ptr %0, i64 256
  %40 = zext nneg i32 %38 to i64
  %41 = getelementptr inbounds nuw [6 x %struct.hwloc_special_level_s], ptr %39, i64 0, i64 %40
  %42 = load i32, ptr %41, align 8, !tbaa !41
  %.not8.i27 = icmp eq i32 %42, 0
  br i1 %.not8.i27, label %hwloc_get_obj_by_depth_and_gp_index.exit36, label %43

43:                                               ; preds = %37
  %44 = getelementptr inbounds nuw i8, ptr %41, i64 8
  br label %hwloc_get_obj_by_depth.exit.i28

45:                                               ; preds = %32
  %46 = getelementptr inbounds nuw i8, ptr %0, i64 16
  %47 = load ptr, ptr %46, align 8, !tbaa !43
  %48 = sext i32 %8 to i64
  %49 = getelementptr inbounds i32, ptr %47, i64 %48
  %50 = load i32, ptr %49, align 4, !tbaa !3
  %.not21.i.not.i35 = icmp eq i32 %50, 0
  br i1 %.not21.i.not.i35, label %hwloc_get_obj_by_depth_and_gp_index.exit36, label %51

51:                                               ; preds = %45
  %52 = getelementptr inbounds nuw i8, ptr %0, i64 24
  %53 = load ptr, ptr %52, align 8, !tbaa !32
  %54 = getelementptr inbounds ptr, ptr %53, i64 %48
  br label %hwloc_get_obj_by_depth.exit.i28

hwloc_get_obj_by_depth.exit.i28:                  ; preds = %51, %43
  %.sink22.in.i.i29 = phi ptr [ %44, %43 ], [ %54, %51 ]
  %.sink22.i.i30 = load ptr, ptr %.sink22.in.i.i29, align 8, !tbaa !33
  %55 = load ptr, ptr %.sink22.i.i30, align 8, !tbaa !35
  %.not9.i31 = icmp eq ptr %55, null
  br i1 %.not9.i31, label %hwloc_get_obj_by_depth_and_gp_index.exit36, label %.lr.ph.i32

.lr.ph.i32:                                       ; preds = %hwloc_get_obj_by_depth.exit.i28, %59
  %.010.i33 = phi ptr [ %61, %59 ], [ %55, %hwloc_get_obj_by_depth.exit.i28 ]
  %56 = getelementptr inbounds nuw i8, ptr %.010.i33, i64 240
  %57 = load i64, ptr %56, align 8, !tbaa !50
  %58 = icmp eq i64 %57, %2
  br i1 %58, label %hwloc_get_obj_by_depth_and_gp_index.exit36, label %59

59:                                               ; preds = %.lr.ph.i32
  %60 = getelementptr inbounds nuw i8, ptr %.010.i33, i64 56
  %61 = load ptr, ptr %60, align 8, !tbaa !48
  %.not.i34 = icmp eq ptr %61, null
  br i1 %.not.i34, label %hwloc_get_obj_by_depth_and_gp_index.exit36, label %.lr.ph.i32, !llvm.loop !51

hwloc_get_obj_by_depth_and_gp_index.exit36:       ; preds = %hwloc_get_obj_by_depth_and_gp_index.exit.thread, %.lr.ph.i, %59, %.lr.ph.i32, %.preheader, %3, %hwloc_get_obj_by_depth.exit.i28, %45, %37, %35, %hwloc_get_type_depth.exit
  %.0 = phi ptr [ null, %hwloc_get_type_depth.exit ], [ null, %hwloc_get_obj_by_depth.exit.i28 ], [ null, %37 ], [ null, %35 ], [ null, %45 ], [ null, %3 ], [ null, %.preheader ], [ %.010.i33, %.lr.ph.i32 ], [ null, %59 ], [ %.010.i, %.lr.ph.i ], [ null, %hwloc_get_obj_by_depth_and_gp_index.exit.thread ]
  ret ptr %.0
}